; ModuleID = '40/2046.c'
source_filename = "40/2046.c"
target datalayout = "e-m:e-p270:32:32-p271:32:32-p272:64:64-i64:64-f80:128-n8:16:32:64-S128"
target triple = "x86_64-pc-linux-gnu"

@.str = private unnamed_addr constant [16 x i8] c"%lf%lf%lf%lf%lf\00", align 1
@.str.1 = private unnamed_addr constant [6 x i8] c"%.4lf\00", align 1
@.str.2 = private unnamed_addr constant [14 x i8] c"Invalid input\00", align 1

; Function Attrs: noinline nounwind uwtable
define dso_local i32 @main() #0 {
  %1 = alloca i32, align 4
  %2 = alloca double, align 8
  %3 = alloca double, align 8
  %4 = alloca double, align 8
  %5 = alloca double, align 8
  %6 = alloca double, align 8
  %7 = alloca double, align 8
  %8 = alloca double, align 8
  %9 = alloca i32, align 4
  %10 = alloca i32, align 4
  %11 = alloca i32, align 4
  %12 = alloca i32, align 4
  %13 = alloca i32, align 4
  %14 = alloca i32, align 4
  store i32 0, i32* %1, align 4
  %15 = call i32 (i8*, ...) @__isoc99_scanf(i8* getelementptr inbounds ([16 x i8], [16 x i8]* @.str, i64 0, i64 0), double* %4, double* %5, double* %6, double* %7, double* %8)
  %16 = load double, double* %4, align 8
  %17 = load double, double* %5, align 8
  %18 = load double, double* %6, align 8
  %19 = load double, double* %7, align 8
  %20 = load double, double* %8, align 8
  %21 = call double @f(double %16, double %17, double %18, double %19, double %20)
  store double %21, double* %2, align 8
  %22 = load double, double* %2, align 8
  %23 = fcmp une double %22, 0.000000e+00
  br i1 %23, label %24, label %27

24:                                               ; preds = %0
  %25 = load double, double* %2, align 8
  %26 = call i32 (i8*, ...) @printf(i8* getelementptr inbounds ([6 x i8], [6 x i8]* @.str.1, i64 0, i64 0), double %25)
  br label %29

27:                                               ; preds = %0
  %28 = call i32 (i8*, ...) @printf(i8* getelementptr inbounds ([14 x i8], [14 x i8]* @.str.2, i64 0, i64 0))
  br label %29

29:                                               ; preds = %27, %24
  %30 = load i32, i32* %1, align 4
  ret i32 %30
}

declare dso_local i32 @__isoc99_scanf(i8*, ...) #1

; Function Attrs: noinline nounwind uwtable
define dso_local double @f(double %0, double %1, double %2, double %3, double %4) #0 {
  %6 = alloca double, align 8
  %7 = alloca double, align 8
  %8 = alloca double, align 8
  %9 = alloca double, align 8
  %10 = alloca double, align 8
  %11 = alloca double, align 8
  %12 = alloca double, align 8
  %13 = alloca double, align 8
  store double %0, double* %6, align 8
  store double %1, double* %7, align 8
  store double %2, double* %8, align 8
  store double %3, double* %9, align 8
  store double %4, double* %10, align 8
  %14 = load double, double* %6, align 8
  %15 = load double, double* %7, align 8
  %16 = fadd double %14, %15
  %17 = load double, double* %8, align 8
  %18 = fadd double %16, %17
  %19 = load double, double* %9, align 8
  %20 = fadd double %18, %19
  %21 = fdiv double %20, 2.000000e+00
  store double %21, double* %11, align 8
  %22 = load double, double* %10, align 8
  %23 = fdiv double %22, 2.000000e+00
  %24 = fdiv double %23, 3.600000e+02
  %25 = fmul double %24, 2.000000e+00
  %26 = fmul double %25, 3.140000e+00
  store double %26, double* %13, align 8
  %27 = load double, double* %11, align 8
  %28 = load double, double* %6, align 8
  %29 = fsub double %27, %28
  %30 = load double, double* %11, align 8
  %31 = load double, double* %7, align 8
  %32 = fsub double %30, %31
  %33 = fmul double %29, %32
  %34 = load double, double* %11, align 8
  %35 = load double, double* %8, align 8
  %36 = fsub double %34, %35
  %37 = fmul double %33, %36
  %38 = load double, double* %11, align 8
  %39 = load double, double* %9, align 8
  %40 = fsub double %38, %39
  %41 = fmul double %37, %40
  %42 = load double, double* %6, align 8
  %43 = load double, double* %7, align 8
  %44 = fmul double %42, %43
  %45 = load double, double* %8, align 8
  %46 = fmul double %44, %45
  %47 = load double, double* %9, align 8
  %48 = fmul double %46, %47
  %49 = load double, double* %13, align 8
  %50 = call double @cos(double %49) #3
  %51 = fmul double %48, %50
  %52 = load double, double* %13, align 8
  %53 = call double @cos(double %52) #3
  %54 = fmul double %51, %53
  %55 = fsub double %41, %54
  %56 = fcmp ogt double %55, 0.000000e+00
  br i1 %56, label %57, label %88

57:                                               ; preds = %5
  %58 = load double, double* %11, align 8
  %59 = load double, double* %6, align 8
  %60 = fsub double %58, %59
  %61 = load double, double* %11, align 8
  %62 = load double, double* %7, align 8
  %63 = fsub double %61, %62
  %64 = fmul double %60, %63
  %65 = load double, double* %11, align 8
  %66 = load double, double* %8, align 8
  %67 = fsub double %65, %66
  %68 = fmul double %64, %67
  %69 = load double, double* %11, align 8
  %70 = load double, double* %9, align 8
  %71 = fsub double %69, %70
  %72 = fmul double %68, %71
  %73 = load double, double* %6, align 8
  %74 = load double, double* %7, align 8
  %75 = fmul double %73, %74
  %76 = load double, double* %8, align 8
  %77 = fmul double %75, %76
  %78 = load double, double* %9, align 8
  %79 = fmul double %77, %78
  %80 = load double, double* %13, align 8
  %81 = call double @cos(double %80) #3
  %82 = fmul double %79, %81
  %83 = load double, double* %13, align 8
  %84 = call double @cos(double %83) #3
  %85 = fmul double %82, %84
  %86 = fsub double %72, %85
  %87 = call double @sqrt(double %86) #3
  store double %87, double* %12, align 8
  br label %89

88:                                               ; preds = %5
  store double 0.000000e+00, double* %12, align 8
  br label %89

89:                                               ; preds = %88, %57
  %90 = load double, double* %12, align 8
  ret double %90
}

declare dso_local i32 @printf(i8*, ...) #1

; Function Attrs: nounwind
declare dso_local double @cos(double) #2

; Function Attrs: nounwind
declare dso_local double @sqrt(double) #2


!llvm.module.flags = !{!0}
!llvm.ident = !{!1}

!0 = !{i32 1, !"wchar_size", i32 4}
!1 = !{!"clang version 10.0.0-4ubuntu1 "}
